target datalayout = "e-m:e-p270:32:32-p271:32:32-p272:64:64-i64:64-i128:128-f80:128-n8:16:32:64-S128"
target triple = "x86_64-pc-linux-gnu"

@tcg_env = external global ptr, align 8

; Function Attrs: nounwind sspstrong uwtable
define internal void @expand_2_vec(i32 noundef %0, i32 noundef %1, i32 noundef %2, i32 noundef %3, i32 noundef %4, i32 noundef %5, i1 noundef zeroext %6, ptr noundef %7) #0 {
  %9 = alloca i32, align 4
  %10 = alloca i32, align 4
  %11 = alloca i32, align 4
  %12 = alloca i32, align 4
  %13 = alloca i32, align 4
  %14 = alloca i32, align 4
  %15 = alloca i8, align 1
  %16 = alloca ptr, align 8
  %17 = alloca i32, align 4
  %18 = alloca ptr, align 8
  %19 = alloca ptr, align 8
  store i32 %0, ptr %9, align 4
  store i32 %1, ptr %10, align 4
  store i32 %2, ptr %11, align 4
  store i32 %3, ptr %12, align 4
  store i32 %4, ptr %13, align 4
  store i32 %5, ptr %14, align 4
  %20 = zext i1 %6 to i8
  store i8 %20, ptr %15, align 1
  store ptr %7, ptr %16, align 8
  call void @llvm.lifetime.start.p0(i64 4, ptr %17) #10
  store i32 0, ptr %17, align 4
  br label %21

21:                                               ; preds = %57, %8
  %22 = load i32, ptr %17, align 4
  %23 = load i32, ptr %12, align 4
  %24 = icmp ult i32 %22, %23
  br i1 %24, label %26, label %25

25:                                               ; preds = %21
  call void @llvm.lifetime.end.p0(i64 4, ptr %17) #10
  br label %61

26:                                               ; preds = %21
  call void @llvm.lifetime.start.p0(i64 8, ptr %18) #10
  %27 = load i32, ptr %14, align 4
  %28 = call ptr @tcg_temp_new_vec(i32 noundef %27)
  store ptr %28, ptr %18, align 8
  call void @llvm.lifetime.start.p0(i64 8, ptr %19) #10
  %29 = load i32, ptr %14, align 4
  %30 = call ptr @tcg_temp_new_vec(i32 noundef %29)
  store ptr %30, ptr %19, align 8
  %31 = load ptr, ptr %18, align 8
  %32 = load ptr, ptr @tcg_env, align 8
  %33 = load i32, ptr %11, align 4
  %34 = load i32, ptr %17, align 4
  %35 = add i32 %33, %34
  %36 = zext i32 %35 to i64
  call void @tcg_gen_ld_vec(ptr noundef %31, ptr noundef %32, i64 noundef %36)
  %37 = load i8, ptr %15, align 1, !range !5, !noundef !6
  %38 = trunc i8 %37 to i1
  br i1 %38, label %39, label %46

39:                                               ; preds = %26
  %40 = load ptr, ptr %19, align 8
  %41 = load ptr, ptr @tcg_env, align 8
  %42 = load i32, ptr %10, align 4
  %43 = load i32, ptr %17, align 4
  %44 = add i32 %42, %43
  %45 = zext i32 %44 to i64
  call void @tcg_gen_ld_vec(ptr noundef %40, ptr noundef %41, i64 noundef %45)
  br label %46

46:                                               ; preds = %39, %26
  %47 = load ptr, ptr %16, align 8
  %48 = load i32, ptr %9, align 4
  %49 = load ptr, ptr %19, align 8
  %50 = load ptr, ptr %18, align 8
  call void %47(i32 noundef %48, ptr noundef %49, ptr noundef %50)
  %51 = load ptr, ptr %19, align 8
  %52 = load ptr, ptr @tcg_env, align 8
  %53 = load i32, ptr %10, align 4
  %54 = load i32, ptr %17, align 4
  %55 = add i32 %53, %54
  %56 = zext i32 %55 to i64
  call void @tcg_gen_st_vec(ptr noundef %51, ptr noundef %52, i64 noundef %56)
  call void @llvm.lifetime.end.p0(i64 8, ptr %19) #10
  call void @llvm.lifetime.end.p0(i64 8, ptr %18) #10
  br label %57

57:                                               ; preds = %46
  %58 = load i32, ptr %13, align 4
  %59 = load i32, ptr %17, align 4
  %60 = add i32 %59, %58
  store i32 %60, ptr %17, align 4
  br label %21, !llvm.loop !7

61:                                               ; preds = %25
  ret void
}