; Function Attrs: nounwind sspstrong uwtable
define internal fastcc void @expand_2_vec(i32 noundef range(i32 0, 256) %0, i32 noundef %1, i32 noundef %2, i32 noundef %3, i32 noundef range(i32 8, 33) %4, i32 noundef range(i32 3, 6) %5, i1 noundef zeroext %6, ptr noundef readonly captures(none) %7) unnamed_addr #2 {
  %.not = icmp eq i32 %3, 0
  br i1 %.not, label %._crit_edge, label %.lr.ph

.lr.ph:                                           ; preds = %8
  br i1 %6, label %.lr.ph.split.us, label %.lr.ph.split

.lr.ph.split.us:                                  ; preds = %.lr.ph, %.lr.ph.split.us
  %.019.us = phi i32 [ %18, %.lr.ph.split.us ], [ 0, %.lr.ph ]
  %9 = tail call ptr @tcg_temp_new_vec(i32 noundef %5) #10
  %10 = tail call ptr @tcg_temp_new_vec(i32 noundef %5) #10
  %11 = load ptr, ptr @tcg_env, align 8
  %12 = add i32 %.019.us, %2
  %13 = zext i32 %12 to i64
  tail call void @tcg_gen_ld_vec(ptr noundef %9, ptr noundef %11, i64 noundef %13) #10
  %14 = load ptr, ptr @tcg_env, align 8
  %15 = add i32 %.019.us, %1
  %16 = zext i32 %15 to i64
  tail call void @tcg_gen_ld_vec(ptr noundef %10, ptr noundef %14, i64 noundef %16) #10
  tail call void %7(i32 noundef %0, ptr noundef %10, ptr noundef %9) #10
  %17 = load ptr, ptr @tcg_env, align 8
  tail call void @tcg_gen_st_vec(ptr noundef %10, ptr noundef %17, i64 noundef %16) #10
  %18 = add i32 %.019.us, %4
  %19 = icmp ult i32 %18, %3
  br i1 %19, label %.lr.ph.split.us, label %._crit_edge, !llvm.loop !9

._crit_edge:                                      ; preds = %.lr.ph.split, %.lr.ph.split.us, %8
  ret void

.lr.ph.split:                                     ; preds = %.lr.ph, %.lr.ph.split
  %.019 = phi i32 [ %28, %.lr.ph.split ], [ 0, %.lr.ph ]
  %20 = tail call ptr @tcg_temp_new_vec(i32 noundef %5) #10
  %21 = tail call ptr @tcg_temp_new_vec(i32 noundef %5) #10
  %22 = load ptr, ptr @tcg_env, align 8
  %23 = add i32 %.019, %2
  %24 = zext i32 %23 to i64
  tail call void @tcg_gen_ld_vec(ptr noundef %20, ptr noundef %22, i64 noundef %24) #10
  tail call void %7(i32 noundef %0, ptr noundef %21, ptr noundef %20) #10
  %25 = load ptr, ptr @tcg_env, align 8
  %26 = add i32 %.019, %1
  %27 = zext i32 %26 to i64
  tail call void @tcg_gen_st_vec(ptr noundef %21, ptr noundef %25, i64 noundef %27) #10
  %28 = add i32 %.019, %4
  %29 = icmp ult i32 %28, %3
  br i1 %29, label %.lr.ph.split, label %._crit_edge, !llvm.loop !9
}